target datalayout = "e-m:e-p270:32:32-p271:32:32-p272:64:64-i64:64-i128:128-f80:128-n8:16:32:64-S128"
target triple = "x86_64-pc-linux-gnu"

%"class.absl::debugging_internal::ElfMemImage" = type { ptr, ptr, ptr, ptr, ptr, i32, i64, i64, i64 }
%struct.Elf64_Sym = type { i32, i8, i8, i16, i64, i64 }
%"class.absl::debugging_internal::ElfMemImage::SymbolIterator" = type { %"struct.absl::debugging_internal::ElfMemImage::SymbolInfo", i32, ptr }
%"struct.absl::debugging_internal::ElfMemImage::SymbolInfo" = type { ptr, ptr, ptr, ptr }

@_ZN4absl18debugging_internal11ElfMemImage14SymbolIteratorC1EPKvj = dso_local unnamed_addr alias void (ptr, ptr, i32), ptr @_ZN4absl18debugging_internal11ElfMemImage14SymbolIteratorC2EPKvj

; Function Attrs: mustprogress nounwind uwtable
define dso_local noundef zeroext i1 @_ZNK4absl18debugging_internal11ElfMemImage14SymbolIteratoreqERKS2_(ptr noundef nonnull align 8 dereferenceable(48) %0, ptr noundef nonnull align 8 dereferenceable(48) %1) #4 align 2 {
  %3 = alloca ptr, align 8
  %4 = alloca ptr, align 8
  store ptr %0, ptr %3, align 8, !tbaa !59
  store ptr %1, ptr %4, align 8, !tbaa !59
  %5 = load ptr, ptr %3, align 8
  %6 = getelementptr inbounds nuw %"class.absl::debugging_internal::ElfMemImage::SymbolIterator", ptr %5, i32 0, i32 2
  %7 = load ptr, ptr %6, align 8, !tbaa !66
  %8 = load ptr, ptr %4, align 8, !tbaa !59
  %9 = getelementptr inbounds nuw %"class.absl::debugging_internal::ElfMemImage::SymbolIterator", ptr %8, i32 0, i32 2
  %10 = load ptr, ptr %9, align 8, !tbaa !66
  %11 = icmp eq ptr %7, %10
  br i1 %11, label %12, label %19

12:                                               ; preds = %2
  %13 = getelementptr inbounds nuw %"class.absl::debugging_internal::ElfMemImage::SymbolIterator", ptr %5, i32 0, i32 1
  %14 = load i32, ptr %13, align 8, !tbaa !64
  %15 = load ptr, ptr %4, align 8, !tbaa !59
  %16 = getelementptr inbounds nuw %"class.absl::debugging_internal::ElfMemImage::SymbolIterator", ptr %15, i32 0, i32 1
  %17 = load i32, ptr %16, align 8, !tbaa !64
  %18 = icmp eq i32 %14, %17
  br label %19

19:                                               ; preds = %12, %2
  %20 = phi i1 [ false, %2 ], [ %18, %12 ]
  ret i1 %20
}

; Function Attrs: mustprogress nounwind uwtable
define dso_local noundef i32 @_ZNK4absl18debugging_internal11ElfMemImage13GetNumSymbolsEv(ptr noundef nonnull align 8 dereferenceable(72) %0) #4 align 2 {
  %2 = alloca ptr, align 8
  store ptr %0, ptr %2, align 8, !tbaa !4
  %3 = load ptr, ptr %2, align 8
  %4 = getelementptr inbounds nuw %"class.absl::debugging_internal::ElfMemImage", ptr %3, i32 0, i32 5
  %5 = load i32, ptr %4, align 8, !tbaa !21
  ret i32 %5
}

; Function Attrs: mustprogress uwtable
define dso_local noundef nonnull align 8 dereferenceable(48) ptr @_ZN4absl18debugging_internal11ElfMemImage14SymbolIteratorppEv(ptr noundef nonnull align 8 dereferenceable(48) %0) #0 align 2 {
  %2 = alloca ptr, align 8
  store ptr %0, ptr %2, align 8, !tbaa !59
  %3 = load ptr, ptr %2, align 8
  call void @_ZN4absl18debugging_internal11ElfMemImage14SymbolIterator6UpdateEj(ptr noundef nonnull align 8 dereferenceable(48) %3, i32 noundef 1)
  ret ptr %3
}

; Function Attrs: mustprogress nounwind uwtable
define internal noundef i32 @_ZN4absl18debugging_internal12_GLOBAL__N_17ElfBindEPK9Elf64_Sym(ptr noundef %0) #4 {
  %2 = alloca ptr, align 8
  store ptr %0, ptr %2, align 8, !tbaa !9
  %3 = load ptr, ptr %2, align 8, !tbaa !9
  %4 = getelementptr inbounds nuw %struct.Elf64_Sym, ptr %3, i32 0, i32 1
  %5 = load i8, ptr %4, align 4, !tbaa !61
  %6 = zext i8 %5 to i32
  %7 = ashr i32 %6, 4
  ret i32 %7
}

; Function Attrs: mustprogress nounwind uwtable
define dso_local noundef nonnull align 8 dereferenceable(32) ptr @_ZNK4absl18debugging_internal11ElfMemImage14SymbolIteratordeEv(ptr noundef nonnull align 8 dereferenceable(48) %0) #4 align 2 {
  %2 = alloca ptr, align 8
  store ptr %0, ptr %2, align 8, !tbaa !59
  %3 = load ptr, ptr %2, align 8
  %4 = getelementptr inbounds nuw %"class.absl::debugging_internal::ElfMemImage::SymbolIterator", ptr %3, i32 0, i32 0
  ret ptr %4
}

; Function Attrs: mustprogress nounwind uwtable
define dso_local noundef zeroext i1 @_ZNK4absl18debugging_internal11ElfMemImage14SymbolIteratorneERKS2_(ptr noundef nonnull align 8 dereferenceable(48) %0, ptr noundef nonnull align 8 dereferenceable(48) %1) #4 align 2 {
  %3 = alloca ptr, align 8
  %4 = alloca ptr, align 8
  store ptr %0, ptr %3, align 8, !tbaa !59
  store ptr %1, ptr %4, align 8, !tbaa !59
  %5 = load ptr, ptr %3, align 8
  %6 = load ptr, ptr %4, align 8, !tbaa !59
  %7 = call noundef zeroext i1 @_ZNK4absl18debugging_internal11ElfMemImage14SymbolIteratoreqERKS2_(ptr noundef nonnull align 8 dereferenceable(48) %5, ptr noundef nonnull align 8 dereferenceable(48) %6)
  %8 = xor i1 %7, true
  ret i1 %8
}

; Function Attrs: mustprogress uwtable
define dso_local void @_ZNK4absl18debugging_internal11ElfMemImage3endEv(ptr dead_on_unwind noalias writable sret(%"class.absl::debugging_internal::ElfMemImage::SymbolIterator") align 8 %0, ptr noundef nonnull align 8 dereferenceable(72) %1) #0 align 2 {
  %3 = alloca ptr, align 8
  store ptr %1, ptr %3, align 8, !tbaa !4
  %4 = load ptr, ptr %3, align 8
  %5 = call noundef i32 @_ZNK4absl18debugging_internal11ElfMemImage13GetNumSymbolsEv(ptr noundef nonnull align 8 dereferenceable(72) %4)
  call void @_ZN4absl18debugging_internal11ElfMemImage14SymbolIteratorC1EPKvj(ptr noundef nonnull align 8 dereferenceable(48) %0, ptr noundef %4, i32 noundef %5)
  ret void
}

; Function Attrs: mustprogress uwtable
define dso_local void @_ZNK4absl18debugging_internal11ElfMemImage5beginEv(ptr dead_on_unwind noalias writable sret(%"class.absl::debugging_internal::ElfMemImage::SymbolIterator") align 8 %0, ptr noundef nonnull align 8 dereferenceable(72) %1) #0 align 2 {
  %3 = alloca ptr, align 8
  store ptr %1, ptr %3, align 8, !tbaa !4
  %4 = load ptr, ptr %3, align 8
  call void @_ZN4absl18debugging_internal11ElfMemImage14SymbolIteratorC1EPKvj(ptr noundef nonnull align 8 dereferenceable(48) %0, ptr noundef %4, i32 noundef 0)
  call void @_ZN4absl18debugging_internal11ElfMemImage14SymbolIterator6UpdateEj(ptr noundef nonnull align 8 dereferenceable(48) %0, i32 noundef 0)
  ret void
}

; Function Attrs: mustprogress uwtable
define dso_local noundef zeroext i1 @_ZNK4absl18debugging_internal11ElfMemImage21LookupSymbolByAddressEPKvPNS1_10SymbolInfoE(ptr noundef nonnull align 8 dereferenceable(72) %0, ptr noundef %1, ptr noundef %2) #0 align 2 {
  %4 = alloca i1, align 1
  %5 = alloca ptr, align 8
  %6 = alloca ptr, align 8
  %7 = alloca ptr, align 8
  %8 = alloca ptr, align 8
  %9 = alloca %"class.absl::debugging_internal::ElfMemImage::SymbolIterator", align 8
  %10 = alloca %"class.absl::debugging_internal::ElfMemImage::SymbolIterator", align 8
  %11 = alloca i32, align 4
  %12 = alloca ptr, align 8
  %13 = alloca ptr, align 8
  %14 = alloca ptr, align 8
  store ptr %0, ptr %5, align 8, !tbaa !4
  store ptr %1, ptr %6, align 8, !tbaa !9
  store ptr %2, ptr %7, align 8, !tbaa !52
  %15 = load ptr, ptr %5, align 8
  call void @llvm.lifetime.start.p0(i64 8, ptr %8) #7
  store ptr %15, ptr %8, align 8, !tbaa !4
  call void @llvm.lifetime.start.p0(i64 48, ptr %9) #7
  %16 = load ptr, ptr %8, align 8, !tbaa !4
  call void @_ZNK4absl18debugging_internal11ElfMemImage5beginEv(ptr dead_on_unwind writable sret(%"class.absl::debugging_internal::ElfMemImage::SymbolIterator") align 8 %9, ptr noundef nonnull align 8 dereferenceable(72) %16)
  call void @llvm.lifetime.start.p0(i64 48, ptr %10) #7
  %17 = load ptr, ptr %8, align 8, !tbaa !4
  call void @_ZNK4absl18debugging_internal11ElfMemImage3endEv(ptr dead_on_unwind writable sret(%"class.absl::debugging_internal::ElfMemImage::SymbolIterator") align 8 %10, ptr noundef nonnull align 8 dereferenceable(72) %17)
  br label %18

18:                                               ; preds = %65, %3
  %19 = call noundef zeroext i1 @_ZNK4absl18debugging_internal11ElfMemImage14SymbolIteratorneERKS2_(ptr noundef nonnull align 8 dereferenceable(48) %9, ptr noundef nonnull align 8 dereferenceable(48) %10)
  br i1 %19, label %21, label %20

20:                                               ; preds = %18
  store i32 2, ptr %11, align 4
  br label %67

21:                                               ; preds = %18
  call void @llvm.lifetime.start.p0(i64 8, ptr %12) #7
  %22 = call noundef nonnull align 8 dereferenceable(32) ptr @_ZNK4absl18debugging_internal11ElfMemImage14SymbolIteratordeEv(ptr noundef nonnull align 8 dereferenceable(48) %9)
  store ptr %22, ptr %12, align 8, !tbaa !52
  call void @llvm.lifetime.start.p0(i64 8, ptr %13) #7
  %23 = load ptr, ptr %12, align 8, !tbaa !52
  %24 = getelementptr inbounds nuw %"struct.absl::debugging_internal::ElfMemImage::SymbolInfo", ptr %23, i32 0, i32 2
  %25 = load ptr, ptr %24, align 8, !tbaa !62
  store ptr %25, ptr %13, align 8, !tbaa !10
  call void @llvm.lifetime.start.p0(i64 8, ptr %14) #7
  %26 = load ptr, ptr %13, align 8, !tbaa !10
  %27 = load ptr, ptr %12, align 8, !tbaa !52
  %28 = getelementptr inbounds nuw %"struct.absl::debugging_internal::ElfMemImage::SymbolInfo", ptr %27, i32 0, i32 3
  %29 = load ptr, ptr %28, align 8, !tbaa !57
  %30 = getelementptr inbounds nuw %struct.Elf64_Sym, ptr %29, i32 0, i32 5
  %31 = load i64, ptr %30, align 8, !tbaa !63
  %32 = getelementptr inbounds nuw i8, ptr %26, i64 %31
  store ptr %32, ptr %14, align 8, !tbaa !10
  %33 = load ptr, ptr %13, align 8, !tbaa !10
  %34 = load ptr, ptr %6, align 8, !tbaa !9
  %35 = icmp ule ptr %33, %34
  br i1 %35, label %36, label %58

36:                                               ; preds = %21
  %37 = load ptr, ptr %6, align 8, !tbaa !9
  %38 = load ptr, ptr %14, align 8, !tbaa !10
  %39 = icmp ult ptr %37, %38
  br i1 %39, label %40, label %58

40:                                               ; preds = %36
  %41 = load ptr, ptr %7, align 8, !tbaa !52
  %42 = icmp ne ptr %41, null
  br i1 %42, label %43, label %56

43:                                               ; preds = %40
  %44 = load ptr, ptr %12, align 8, !tbaa !52
  %45 = getelementptr inbounds nuw %"struct.absl::debugging_internal::ElfMemImage::SymbolInfo", ptr %44, i32 0, i32 3
  %46 = load ptr, ptr %45, align 8, !tbaa !57
  %47 = call noundef i32 @_ZN4absl18debugging_internal12_GLOBAL__N_17ElfBindEPK9Elf64_Sym(ptr noundef %46)
  %48 = icmp eq i32 %47, 1
  br i1 %48, label %49, label %52

49:                                               ; preds = %43
  %50 = load ptr, ptr %12, align 8, !tbaa !52
  %51 = load ptr, ptr %7, align 8, !tbaa !52
  call void @llvm.memcpy.p0.p0.i64(ptr align 8 %51, ptr align 8 %50, i64 32, i1 false), !tbaa.struct !58
  store i1 true, ptr %4, align 1
  store i32 1, ptr %11, align 4
  br label %59

52:                                               ; preds = %43
  %53 = load ptr, ptr %12, align 8, !tbaa !52
  %54 = load ptr, ptr %7, align 8, !tbaa !52
  call void @llvm.memcpy.p0.p0.i64(ptr align 8 %54, ptr align 8 %53, i64 32, i1 false), !tbaa.struct !58
  br label %55

55:                                               ; preds = %52
  br label %57

56:                                               ; preds = %40
  store i1 true, ptr %4, align 1
  store i32 1, ptr %11, align 4
  br label %59

57:                                               ; preds = %55
  br label %58

58:                                               ; preds = %57, %36, %21
  store i32 0, ptr %11, align 4
  br label %59

59:                                               ; preds = %58, %56, %49
  call void @llvm.lifetime.end.p0(i64 8, ptr %14) #7
  call void @llvm.lifetime.end.p0(i64 8, ptr %13) #7
  %60 = load i32, ptr %11, align 4
  switch i32 %60, label %62 [
    i32 0, label %61
  ]

61:                                               ; preds = %59
  store i32 0, ptr %11, align 4
  br label %62

62:                                               ; preds = %61, %59
  call void @llvm.lifetime.end.p0(i64 8, ptr %12) #7
  %63 = load i32, ptr %11, align 4
  switch i32 %63, label %67 [
    i32 0, label %64
  ]

64:                                               ; preds = %62
  br label %65

65:                                               ; preds = %64
  %66 = call noundef nonnull align 8 dereferenceable(48) ptr @_ZN4absl18debugging_internal11ElfMemImage14SymbolIteratorppEv(ptr noundef nonnull align 8 dereferenceable(48) %9)
  br label %18

67:                                               ; preds = %62, %20
  call void @llvm.lifetime.end.p0(i64 48, ptr %10) #7
  call void @llvm.lifetime.end.p0(i64 48, ptr %9) #7
  call void @llvm.lifetime.end.p0(i64 8, ptr %8) #7
  %68 = load i32, ptr %11, align 4
  switch i32 %68, label %72 [
    i32 2, label %69
    i32 1, label %70
  ]

69:                                               ; preds = %67
  store i1 false, ptr %4, align 1
  br label %70

70:                                               ; preds = %69, %67
  %71 = load i1, ptr %4, align 1
  ret i1 %71

72:                                               ; preds = %67
  unreachable
}