; Function Attrs: mustprogress uwtable
define dso_local noundef zeroext i1 @_ZNK4absl18debugging_internal11ElfMemImage21LookupSymbolByAddressEPKvPNS1_10SymbolInfoE(ptr noundef nonnull align 8 dereferenceable(72) %0, ptr noundef readnone captures(address) %1, ptr noundef writeonly captures(address_is_null) %2) local_unnamed_addr #0 align 2 {
  %4 = alloca %"class.absl::debugging_internal::ElfMemImage::SymbolIterator", align 8
  call void @llvm.lifetime.start.p0(i64 48, ptr nonnull %4) #11
  %5 = getelementptr inbounds nuw i8, ptr %4, i64 32
  store i32 0, ptr %5, align 8, !tbaa !47, !alias.scope !64
  %6 = getelementptr inbounds nuw i8, ptr %4, i64 40
  store ptr %0, ptr %6, align 8, !tbaa !53, !alias.scope !64
  call void @_ZN4absl18debugging_internal11ElfMemImage14SymbolIterator6UpdateEj(ptr noundef nonnull align 8 dereferenceable(48) %4, i32 noundef 0)
  %7 = getelementptr inbounds nuw i8, ptr %0, i64 40
  %8 = load i32, ptr %7, align 8, !tbaa !38, !noalias !67
  %9 = load ptr, ptr %6, align 8, !tbaa !53
  %10 = icmp ne ptr %9, %0
  %11 = load i32, ptr %5, align 8
  %12 = icmp ne i32 %11, %8
  %.not3.i.not.not32 = select i1 %10, i1 true, i1 %12
  br i1 %.not3.i.not.not32, label %.lr.ph, label %.critedge

.lr.ph:                                           ; preds = %3
  %13 = getelementptr inbounds nuw i8, ptr %4, i64 16
  %14 = getelementptr inbounds nuw i8, ptr %4, i64 24
  %.not24 = icmp eq ptr %2, null
  br i1 %.not24, label %.lr.ph.split.us, label %.lr.ph.split

.lr.ph.split.us:                                  ; preds = %.lr.ph, %22
  %15 = load ptr, ptr %13, align 8, !tbaa !70
  %.not.us = icmp ugt ptr %15, %1
  br i1 %.not.us, label %22, label %16

16:                                               ; preds = %.lr.ph.split.us
  %17 = load ptr, ptr %14, align 8, !tbaa !59
  %18 = getelementptr inbounds nuw i8, ptr %17, i64 16
  %19 = load i64, ptr %18, align 8, !tbaa !71
  %20 = getelementptr inbounds nuw i8, ptr %15, i64 %19
  %21 = icmp ult ptr %1, %20
  br i1 %21, label %.critedge, label %22

22:                                               ; preds = %16, %.lr.ph.split.us
  call void @_ZN4absl18debugging_internal11ElfMemImage14SymbolIterator6UpdateEj(ptr noundef nonnull align 8 dereferenceable(48) %4, i32 noundef 1)
  %23 = load ptr, ptr %6, align 8, !tbaa !53
  %24 = icmp ne ptr %23, %0
  %25 = load i32, ptr %5, align 8
  %26 = icmp ne i32 %25, %8
  %.not3.i.not.not.us = select i1 %24, i1 true, i1 %26
  br i1 %.not3.i.not.not.us, label %.lr.ph.split.us, label %.critedge

.lr.ph.split:                                     ; preds = %.lr.ph, %37
  %27 = load ptr, ptr %13, align 8, !tbaa !70
  %28 = load ptr, ptr %14, align 8, !tbaa !59
  %.not = icmp ugt ptr %27, %1
  br i1 %.not, label %37, label %29

29:                                               ; preds = %.lr.ph.split
  %30 = getelementptr inbounds nuw i8, ptr %28, i64 16
  %31 = load i64, ptr %30, align 8, !tbaa !71
  %32 = getelementptr inbounds nuw i8, ptr %27, i64 %31
  %33 = icmp ult ptr %1, %32
  br i1 %33, label %34, label %37

34:                                               ; preds = %29
  %35 = getelementptr i8, ptr %28, i64 4
  %.val = load i8, ptr %35, align 4, !tbaa !60
  %.mask = and i8 %.val, -16
  %36 = icmp eq i8 %.mask, 16
  call void @llvm.memcpy.p0.p0.i64(ptr noundef nonnull align 8 dereferenceable(32) %2, ptr noundef nonnull align 8 dereferenceable(32) %4, i64 32, i1 false)
  br i1 %36, label %.critedge, label %37

37:                                               ; preds = %34, %29, %.lr.ph.split
  call void @_ZN4absl18debugging_internal11ElfMemImage14SymbolIterator6UpdateEj(ptr noundef nonnull align 8 dereferenceable(48) %4, i32 noundef 1)
  %38 = load ptr, ptr %6, align 8, !tbaa !53
  %39 = icmp ne ptr %38, %0
  %40 = load i32, ptr %5, align 8
  %41 = icmp ne i32 %40, %8
  %.not3.i.not.not = select i1 %39, i1 true, i1 %41
  br i1 %.not3.i.not.not, label %.lr.ph.split, label %.critedge

.critedge:                                        ; preds = %37, %34, %22, %16, %3
  %.not3.i.not.not31 = phi i1 [ false, %3 ], [ false, %22 ], [ true, %16 ], [ true, %34 ], [ false, %37 ]
  call void @llvm.lifetime.end.p0(i64 48, ptr nonnull %4) #11
  ret i1 %.not3.i.not.not31
}